target datalayout = "e-m:e-p270:32:32-p271:32:32-p272:64:64-i64:64-i128:128-f80:128-n8:16:32:64-S128"
target triple = "x86_64-pc-linux-gnu"

%struct.Query = type { i32, i32, i32, i64, i8, ptr, i32, i8, i8, i8, i8, i8, i8, i8, i8, i8, i8, i8, ptr, ptr, ptr, ptr, ptr, i32, ptr, ptr, i32, ptr, ptr, ptr, ptr, ptr, i8, ptr, ptr, ptr, ptr, ptr, ptr, ptr, i32, ptr, ptr, ptr, ptr, i32, i32 }
%struct.List = type { i32, i32, i32, ptr, [0 x %union.ListCell] }
%union.ListCell = type { ptr }
%struct.ForEachState = type { ptr, i32 }
%struct.WindowClause = type { i32, ptr, ptr, ptr, ptr, i32, ptr, ptr, i32, i32, i32, i8, i8, i32, i8 }

; Function Attrs: nounwind uwtable
define dso_local zeroext i1 @query_tree_walker_impl(ptr noundef %0, ptr noundef %1, ptr noundef %2, i32 noundef %3) #0 {
  %5 = alloca i1, align 1
  %6 = alloca ptr, align 8
  %7 = alloca ptr, align 8
  %8 = alloca ptr, align 8
  %9 = alloca i32, align 4
  %10 = alloca ptr, align 8
  %11 = alloca %struct.ForEachState, align 8
  %12 = alloca i32, align 4
  %13 = alloca ptr, align 8
  store ptr %0, ptr %6, align 8
  store ptr %1, ptr %7, align 8
  store ptr %2, ptr %8, align 8
  store i32 %3, ptr %9, align 4
  %14 = load ptr, ptr %7, align 8
  %15 = load ptr, ptr %6, align 8
  %16 = getelementptr inbounds nuw %struct.Query, ptr %15, i32 0, i32 25
  %17 = load ptr, ptr %16, align 8
  %18 = load ptr, ptr %8, align 8
  %19 = call zeroext i1 %14(ptr noundef %17, ptr noundef %18)
  br i1 %19, label %20, label %21

20:                                               ; preds = %4
  store i1 true, ptr %5, align 1
  br label %231

21:                                               ; preds = %4
  %22 = load ptr, ptr %7, align 8
  %23 = load ptr, ptr %6, align 8
  %24 = getelementptr inbounds nuw %struct.Query, ptr %23, i32 0, i32 44
  %25 = load ptr, ptr %24, align 8
  %26 = load ptr, ptr %8, align 8
  %27 = call zeroext i1 %22(ptr noundef %25, ptr noundef %26)
  br i1 %27, label %28, label %29

28:                                               ; preds = %21
  store i1 true, ptr %5, align 1
  br label %231

29:                                               ; preds = %21
  %30 = load ptr, ptr %7, align 8
  %31 = load ptr, ptr %6, align 8
  %32 = getelementptr inbounds nuw %struct.Query, ptr %31, i32 0, i32 27
  %33 = load ptr, ptr %32, align 8
  %34 = load ptr, ptr %8, align 8
  %35 = call zeroext i1 %30(ptr noundef %33, ptr noundef %34)
  br i1 %35, label %36, label %37

36:                                               ; preds = %29
  store i1 true, ptr %5, align 1
  br label %231

37:                                               ; preds = %29
  %38 = load ptr, ptr %7, align 8
  %39 = load ptr, ptr %6, align 8
  %40 = getelementptr inbounds nuw %struct.Query, ptr %39, i32 0, i32 22
  %41 = load ptr, ptr %40, align 8
  %42 = load ptr, ptr %8, align 8
  %43 = call zeroext i1 %38(ptr noundef %41, ptr noundef %42)
  br i1 %43, label %44, label %45

44:                                               ; preds = %37
  store i1 true, ptr %5, align 1
  br label %231

45:                                               ; preds = %37
  %46 = load ptr, ptr %7, align 8
  %47 = load ptr, ptr %6, align 8
  %48 = getelementptr inbounds nuw %struct.Query, ptr %47, i32 0, i32 24
  %49 = load ptr, ptr %48, align 8
  %50 = load ptr, ptr %8, align 8
  %51 = call zeroext i1 %46(ptr noundef %49, ptr noundef %50)
  br i1 %51, label %52, label %53

52:                                               ; preds = %45
  store i1 true, ptr %5, align 1
  br label %231

53:                                               ; preds = %45
  %54 = load ptr, ptr %7, align 8
  %55 = load ptr, ptr %6, align 8
  %56 = getelementptr inbounds nuw %struct.Query, ptr %55, i32 0, i32 30
  %57 = load ptr, ptr %56, align 8
  %58 = load ptr, ptr %8, align 8
  %59 = call zeroext i1 %54(ptr noundef %57, ptr noundef %58)
  br i1 %59, label %60, label %61

60:                                               ; preds = %53
  store i1 true, ptr %5, align 1
  br label %231

61:                                               ; preds = %53
  %62 = load ptr, ptr %7, align 8
  %63 = load ptr, ptr %6, align 8
  %64 = getelementptr inbounds nuw %struct.Query, ptr %63, i32 0, i32 21
  %65 = load ptr, ptr %64, align 8
  %66 = load ptr, ptr %8, align 8
  %67 = call zeroext i1 %62(ptr noundef %65, ptr noundef %66)
  br i1 %67, label %68, label %69

68:                                               ; preds = %61
  store i1 true, ptr %5, align 1
  br label %231

69:                                               ; preds = %61
  %70 = load ptr, ptr %7, align 8
  %71 = load ptr, ptr %6, align 8
  %72 = getelementptr inbounds nuw %struct.Query, ptr %71, i32 0, i32 42
  %73 = load ptr, ptr %72, align 8
  %74 = load ptr, ptr %8, align 8
  %75 = call zeroext i1 %70(ptr noundef %73, ptr noundef %74)
  br i1 %75, label %76, label %77

76:                                               ; preds = %69
  store i1 true, ptr %5, align 1
  br label %231

77:                                               ; preds = %69
  %78 = load ptr, ptr %7, align 8
  %79 = load ptr, ptr %6, align 8
  %80 = getelementptr inbounds nuw %struct.Query, ptr %79, i32 0, i32 34
  %81 = load ptr, ptr %80, align 8
  %82 = load ptr, ptr %8, align 8
  %83 = call zeroext i1 %78(ptr noundef %81, ptr noundef %82)
  br i1 %83, label %84, label %85

84:                                               ; preds = %77
  store i1 true, ptr %5, align 1
  br label %231

85:                                               ; preds = %77
  %86 = load ptr, ptr %7, align 8
  %87 = load ptr, ptr %6, align 8
  %88 = getelementptr inbounds nuw %struct.Query, ptr %87, i32 0, i32 38
  %89 = load ptr, ptr %88, align 8
  %90 = load ptr, ptr %8, align 8
  %91 = call zeroext i1 %86(ptr noundef %89, ptr noundef %90)
  br i1 %91, label %92, label %93

92:                                               ; preds = %85
  store i1 true, ptr %5, align 1
  br label %231

93:                                               ; preds = %85
  %94 = load ptr, ptr %7, align 8
  %95 = load ptr, ptr %6, align 8
  %96 = getelementptr inbounds nuw %struct.Query, ptr %95, i32 0, i32 39
  %97 = load ptr, ptr %96, align 8
  %98 = load ptr, ptr %8, align 8
  %99 = call zeroext i1 %94(ptr noundef %97, ptr noundef %98)
  br i1 %99, label %100, label %101

100:                                              ; preds = %93
  store i1 true, ptr %5, align 1
  br label %231

101:                                              ; preds = %93
  %102 = load i32, ptr %9, align 4
  %103 = and i32 %102, 128
  %104 = icmp ne i32 %103, 0
  br i1 %104, label %105, label %138

105:                                              ; preds = %101
  %106 = load ptr, ptr %7, align 8
  %107 = load ptr, ptr %6, align 8
  %108 = getelementptr inbounds nuw %struct.Query, ptr %107, i32 0, i32 31
  %109 = load ptr, ptr %108, align 8
  %110 = load ptr, ptr %8, align 8
  %111 = call zeroext i1 %106(ptr noundef %109, ptr noundef %110)
  br i1 %111, label %112, label %113

112:                                              ; preds = %105
  store i1 true, ptr %5, align 1
  br label %231

113:                                              ; preds = %105
  %114 = load ptr, ptr %7, align 8
  %115 = load ptr, ptr %6, align 8
  %116 = getelementptr inbounds nuw %struct.Query, ptr %115, i32 0, i32 35
  %117 = load ptr, ptr %116, align 8
  %118 = load ptr, ptr %8, align 8
  %119 = call zeroext i1 %114(ptr noundef %117, ptr noundef %118)
  br i1 %119, label %120, label %121

120:                                              ; preds = %113
  store i1 true, ptr %5, align 1
  br label %231

121:                                              ; preds = %113
  %122 = load ptr, ptr %7, align 8
  %123 = load ptr, ptr %6, align 8
  %124 = getelementptr inbounds nuw %struct.Query, ptr %123, i32 0, i32 37
  %125 = load ptr, ptr %124, align 8
  %126 = load ptr, ptr %8, align 8
  %127 = call zeroext i1 %122(ptr noundef %125, ptr noundef %126)
  br i1 %127, label %128, label %129

128:                                              ; preds = %121
  store i1 true, ptr %5, align 1
  br label %231

129:                                              ; preds = %121
  %130 = load ptr, ptr %7, align 8
  %131 = load ptr, ptr %6, align 8
  %132 = getelementptr inbounds nuw %struct.Query, ptr %131, i32 0, i32 36
  %133 = load ptr, ptr %132, align 8
  %134 = load ptr, ptr %8, align 8
  %135 = call zeroext i1 %130(ptr noundef %133, ptr noundef %134)
  br i1 %135, label %136, label %137

136:                                              ; preds = %129
  store i1 true, ptr %5, align 1
  br label %231

137:                                              ; preds = %129
  br label %203

138:                                              ; preds = %101
  call void @llvm.lifetime.start.p0(i64 8, ptr %10) #7
  call void @llvm.lifetime.start.p0(i64 16, ptr %11) #7
  %139 = getelementptr inbounds nuw %struct.ForEachState, ptr %11, i32 0, i32 0
  %140 = load ptr, ptr %6, align 8
  %141 = getelementptr inbounds nuw %struct.Query, ptr %140, i32 0, i32 35
  %142 = load ptr, ptr %141, align 8
  store ptr %142, ptr %139, align 8
  %143 = getelementptr inbounds nuw %struct.ForEachState, ptr %11, i32 0, i32 1
  store i32 0, ptr %143, align 8
  %144 = getelementptr i8, ptr %11, i64 12
  call void @llvm.memset.p0.i64(ptr align 4 %144, i8 0, i64 4, i1 false)
  br label %145

145:                                              ; preds = %193, %138
  %146 = getelementptr inbounds nuw %struct.ForEachState, ptr %11, i32 0, i32 0
  %147 = load ptr, ptr %146, align 8
  %148 = icmp ne ptr %147, null
  br i1 %148, label %149, label %166

149:                                              ; preds = %145
  %150 = getelementptr inbounds nuw %struct.ForEachState, ptr %11, i32 0, i32 1
  %151 = load i32, ptr %150, align 8
  %152 = getelementptr inbounds nuw %struct.ForEachState, ptr %11, i32 0, i32 0
  %153 = load ptr, ptr %152, align 8
  %154 = getelementptr inbounds nuw %struct.List, ptr %153, i32 0, i32 1
  %155 = load i32, ptr %154, align 4
  %156 = icmp slt i32 %151, %155
  br i1 %156, label %157, label %166

157:                                              ; preds = %149
  %158 = getelementptr inbounds nuw %struct.ForEachState, ptr %11, i32 0, i32 0
  %159 = load ptr, ptr %158, align 8
  %160 = getelementptr inbounds nuw %struct.List, ptr %159, i32 0, i32 3
  %161 = load ptr, ptr %160, align 8
  %162 = getelementptr inbounds nuw %struct.ForEachState, ptr %11, i32 0, i32 1
  %163 = load i32, ptr %162, align 8
  %164 = sext i32 %163 to i64
  %165 = getelementptr inbounds %union.ListCell, ptr %161, i64 %164
  store ptr %165, ptr %10, align 8
  br label %167

166:                                              ; preds = %149, %145
  store ptr null, ptr %10, align 8
  br label %167

167:                                              ; preds = %166, %157
  %168 = phi i32 [ 1, %157 ], [ 0, %166 ]
  %169 = icmp ne i32 %168, 0
  br i1 %169, label %171, label %170

170:                                              ; preds = %167
  store i32 2, ptr %12, align 4
  br label %197

171:                                              ; preds = %167
  call void @llvm.lifetime.start.p0(i64 8, ptr %13) #7
  %172 = load ptr, ptr %10, align 8
  %173 = load ptr, ptr %172, align 8
  store ptr %173, ptr %13, align 8
  %174 = load ptr, ptr %7, align 8
  %175 = load ptr, ptr %13, align 8
  %176 = getelementptr inbounds nuw %struct.WindowClause, ptr %175, i32 0, i32 6
  %177 = load ptr, ptr %176, align 8
  %178 = load ptr, ptr %8, align 8
  %179 = call zeroext i1 %174(ptr noundef %177, ptr noundef %178)
  br i1 %179, label %180, label %181

180:                                              ; preds = %171
  store i1 true, ptr %5, align 1
  store i32 1, ptr %12, align 4
  br label %190

181:                                              ; preds = %171
  %182 = load ptr, ptr %7, align 8
  %183 = load ptr, ptr %13, align 8
  %184 = getelementptr inbounds nuw %struct.WindowClause, ptr %183, i32 0, i32 7
  %185 = load ptr, ptr %184, align 8
  %186 = load ptr, ptr %8, align 8
  %187 = call zeroext i1 %182(ptr noundef %185, ptr noundef %186)
  br i1 %187, label %188, label %189

188:                                              ; preds = %181
  store i1 true, ptr %5, align 1
  store i32 1, ptr %12, align 4
  br label %190

189:                                              ; preds = %181
  store i32 0, ptr %12, align 4
  br label %190

190:                                              ; preds = %189, %188, %180
  call void @llvm.lifetime.end.p0(i64 8, ptr %13) #7
  %191 = load i32, ptr %12, align 4
  switch i32 %191, label %197 [
    i32 0, label %192
  ]

192:                                              ; preds = %190
  br label %193

193:                                              ; preds = %192
  %194 = getelementptr inbounds nuw %struct.ForEachState, ptr %11, i32 0, i32 1
  %195 = load i32, ptr %194, align 8
  %196 = add i32 %195, 1
  store i32 %196, ptr %194, align 8
  br label %145, !llvm.loop !16

197:                                              ; preds = %190, %170
  call void @llvm.lifetime.end.p0(i64 16, ptr %11) #7
  %198 = load i32, ptr %12, align 4
  switch i32 %198, label %200 [
    i32 2, label %199
  ]

199:                                              ; preds = %197
  store i32 0, ptr %12, align 4
  br label %200

200:                                              ; preds = %199, %197
  call void @llvm.lifetime.end.p0(i64 8, ptr %10) #7
  %201 = load i32, ptr %12, align 4
  switch i32 %201, label %233 [
    i32 0, label %202
    i32 1, label %231
  ]

202:                                              ; preds = %200
  br label %203

203:                                              ; preds = %202, %137
  %204 = load i32, ptr %9, align 4
  %205 = and i32 %204, 2
  %206 = icmp ne i32 %205, 0
  br i1 %206, label %216, label %207

207:                                              ; preds = %203
  %208 = load ptr, ptr %7, align 8
  %209 = load ptr, ptr %6, align 8
  %210 = getelementptr inbounds nuw %struct.Query, ptr %209, i32 0, i32 18
  %211 = load ptr, ptr %210, align 8
  %212 = load ptr, ptr %8, align 8
  %213 = call zeroext i1 %208(ptr noundef %211, ptr noundef %212)
  br i1 %213, label %214, label %215

214:                                              ; preds = %207
  store i1 true, ptr %5, align 1
  br label %231

215:                                              ; preds = %207
  br label %216

216:                                              ; preds = %215, %203
  %217 = load i32, ptr %9, align 4
  %218 = and i32 %217, 8
  %219 = icmp ne i32 %218, 0
  br i1 %219, label %230, label %220

220:                                              ; preds = %216
  %221 = load ptr, ptr %6, align 8
  %222 = getelementptr inbounds nuw %struct.Query, ptr %221, i32 0, i32 19
  %223 = load ptr, ptr %222, align 8
  %224 = load ptr, ptr %7, align 8
  %225 = load ptr, ptr %8, align 8
  %226 = load i32, ptr %9, align 4
  %227 = call zeroext i1 @range_table_walker_impl(ptr noundef %223, ptr noundef %224, ptr noundef %225, i32 noundef %226)
  br i1 %227, label %228, label %229

228:                                              ; preds = %220
  store i1 true, ptr %5, align 1
  br label %231

229:                                              ; preds = %220
  br label %230

230:                                              ; preds = %229, %216
  store i1 false, ptr %5, align 1
  br label %231

231:                                              ; preds = %230, %228, %214, %200, %136, %128, %120, %112, %100, %92, %84, %76, %68, %60, %52, %44, %36, %28, %20
  %232 = load i1, ptr %5, align 1
  ret i1 %232

233:                                              ; preds = %200
  unreachable
}