; Function Attrs: nounwind uwtable
define dso_local noundef zeroext i1 @query_tree_walker_impl(ptr noundef readonly captures(none) %0, ptr noundef readonly captures(none) %1, ptr noundef %2, i32 noundef %3) local_unnamed_addr #0 {
  %5 = getelementptr inbounds nuw i8, ptr %0, i64 112
  %6 = load ptr, ptr %5, align 8
  %7 = tail call zeroext i1 %1(ptr noundef %6, ptr noundef %2) #13
  br i1 %7, label %.critedge.thread, label %8

8:                                                ; preds = %4
  %9 = getelementptr inbounds nuw i8, ptr %0, i64 264
  %10 = load ptr, ptr %9, align 8
  %11 = tail call zeroext i1 %1(ptr noundef %10, ptr noundef %2) #13
  br i1 %11, label %.critedge.thread, label %12

12:                                               ; preds = %8
  %13 = getelementptr inbounds nuw i8, ptr %0, i64 128
  %14 = load ptr, ptr %13, align 8
  %15 = tail call zeroext i1 %1(ptr noundef %14, ptr noundef %2) #13
  br i1 %15, label %.critedge.thread, label %16

16:                                               ; preds = %12
  %17 = getelementptr inbounds nuw i8, ptr %0, i64 88
  %18 = load ptr, ptr %17, align 8
  %19 = tail call zeroext i1 %1(ptr noundef %18, ptr noundef %2) #13
  br i1 %19, label %.critedge.thread, label %20

20:                                               ; preds = %16
  %21 = getelementptr inbounds nuw i8, ptr %0, i64 104
  %22 = load ptr, ptr %21, align 8
  %23 = tail call zeroext i1 %1(ptr noundef %22, ptr noundef %2) #13
  br i1 %23, label %.critedge.thread, label %24

24:                                               ; preds = %20
  %25 = getelementptr inbounds nuw i8, ptr %0, i64 152
  %26 = load ptr, ptr %25, align 8
  %27 = tail call zeroext i1 %1(ptr noundef %26, ptr noundef %2) #13
  br i1 %27, label %.critedge.thread, label %28

28:                                               ; preds = %24
  %29 = getelementptr inbounds nuw i8, ptr %0, i64 80
  %30 = load ptr, ptr %29, align 8
  %31 = tail call zeroext i1 %1(ptr noundef %30, ptr noundef %2) #13
  br i1 %31, label %.critedge.thread, label %32

32:                                               ; preds = %28
  %33 = getelementptr inbounds nuw i8, ptr %0, i64 248
  %34 = load ptr, ptr %33, align 8
  %35 = tail call zeroext i1 %1(ptr noundef %34, ptr noundef %2) #13
  br i1 %35, label %.critedge.thread, label %36

36:                                               ; preds = %32
  %37 = getelementptr inbounds nuw i8, ptr %0, i64 184
  %38 = load ptr, ptr %37, align 8
  %39 = tail call zeroext i1 %1(ptr noundef %38, ptr noundef %2) #13
  br i1 %39, label %.critedge.thread, label %40

40:                                               ; preds = %36
  %41 = getelementptr inbounds nuw i8, ptr %0, i64 216
  %42 = load ptr, ptr %41, align 8
  %43 = tail call zeroext i1 %1(ptr noundef %42, ptr noundef %2) #13
  br i1 %43, label %.critedge.thread, label %44

44:                                               ; preds = %40
  %45 = getelementptr inbounds nuw i8, ptr %0, i64 224
  %46 = load ptr, ptr %45, align 8
  %47 = tail call zeroext i1 %1(ptr noundef %46, ptr noundef %2) #13
  br i1 %47, label %.critedge.thread, label %48

48:                                               ; preds = %44
  %49 = and i32 %3, 128
  %.not = icmp eq i32 %49, 0
  br i1 %.not, label %66, label %50

50:                                               ; preds = %48
  %51 = getelementptr inbounds nuw i8, ptr %0, i64 160
  %52 = load ptr, ptr %51, align 8
  %53 = tail call zeroext i1 %1(ptr noundef %52, ptr noundef %2) #13
  br i1 %53, label %.critedge.thread, label %54

54:                                               ; preds = %50
  %55 = getelementptr inbounds nuw i8, ptr %0, i64 192
  %56 = load ptr, ptr %55, align 8
  %57 = tail call zeroext i1 %1(ptr noundef %56, ptr noundef %2) #13
  br i1 %57, label %.critedge.thread, label %58

58:                                               ; preds = %54
  %59 = getelementptr inbounds nuw i8, ptr %0, i64 208
  %60 = load ptr, ptr %59, align 8
  %61 = tail call zeroext i1 %1(ptr noundef %60, ptr noundef %2) #13
  br i1 %61, label %.critedge.thread, label %62

62:                                               ; preds = %58
  %63 = getelementptr inbounds nuw i8, ptr %0, i64 200
  %64 = load ptr, ptr %63, align 8
  %65 = tail call zeroext i1 %1(ptr noundef %64, ptr noundef %2) #13
  br i1 %65, label %.critedge.thread, label %.critedge

66:                                               ; preds = %48
  %67 = getelementptr inbounds nuw i8, ptr %0, i64 192
  %68 = load ptr, ptr %67, align 8
  %.not75 = icmp eq ptr %68, null
  br i1 %.not75, label %.critedge, label %.lr.ph

.lr.ph:                                           ; preds = %66
  %69 = getelementptr inbounds nuw i8, ptr %68, i64 4
  %70 = getelementptr inbounds nuw i8, ptr %68, i64 16
  %71 = load i32, ptr %69, align 4
  %72 = icmp sgt i32 %71, 0
  br i1 %72, label %.lr.ph87, label %.critedge

73:                                               ; preds = %83
  %indvars.iv.next = add nuw nsw i64 %indvars.iv, 1
  %74 = load i32, ptr %69, align 4
  %75 = sext i32 %74 to i64
  %76 = icmp slt i64 %indvars.iv.next, %75
  br i1 %76, label %.lr.ph87, label %.critedge

.lr.ph87:                                         ; preds = %.lr.ph, %73
  %indvars.iv = phi i64 [ %indvars.iv.next, %73 ], [ 0, %.lr.ph ]
  %77 = load ptr, ptr %70, align 8
  %78 = getelementptr inbounds nuw %union.ListCell, ptr %77, i64 %indvars.iv
  %79 = load ptr, ptr %78, align 8
  %80 = getelementptr inbounds nuw i8, ptr %79, i64 48
  %81 = load ptr, ptr %80, align 8
  %82 = tail call zeroext i1 %1(ptr noundef %81, ptr noundef %2) #13
  br i1 %82, label %.critedge.thread, label %83

83:                                               ; preds = %.lr.ph87
  %84 = getelementptr inbounds nuw i8, ptr %79, i64 56
  %85 = load ptr, ptr %84, align 8
  %86 = tail call zeroext i1 %1(ptr noundef %85, ptr noundef %2) #13
  br i1 %86, label %.critedge.thread, label %73

.critedge:                                        ; preds = %73, %66, %.lr.ph, %62
  %87 = and i32 %3, 2
  %.not77 = icmp eq i32 %87, 0
  br i1 %.not77, label %88, label %92

88:                                               ; preds = %.critedge
  %89 = getelementptr inbounds nuw i8, ptr %0, i64 56
  %90 = load ptr, ptr %89, align 8
  %91 = tail call zeroext i1 %1(ptr noundef %90, ptr noundef %2) #13
  br i1 %91, label %.critedge.thread, label %92

92:                                               ; preds = %88, %.critedge
  %93 = and i32 %3, 8
  %.not78 = icmp eq i32 %93, 0
  br i1 %.not78, label %94, label %98

94:                                               ; preds = %92
  %95 = getelementptr inbounds nuw i8, ptr %0, i64 64
  %96 = load ptr, ptr %95, align 8
  %97 = tail call zeroext i1 @range_table_walker_impl(ptr noundef %96, ptr noundef %1, ptr noundef %2, i32 noundef %3)
  br i1 %97, label %.critedge.thread, label %98

98:                                               ; preds = %94, %92
  br label %.critedge.thread

.critedge.thread:                                 ; preds = %.lr.ph87, %83, %94, %88, %62, %58, %54, %50, %44, %40, %36, %32, %28, %24, %20, %16, %12, %8, %4, %98
  %.0 = phi i1 [ false, %98 ], [ true, %4 ], [ true, %8 ], [ true, %12 ], [ true, %16 ], [ true, %20 ], [ true, %24 ], [ true, %28 ], [ true, %32 ], [ true, %36 ], [ true, %40 ], [ true, %44 ], [ true, %50 ], [ true, %54 ], [ true, %58 ], [ true, %62 ], [ true, %88 ], [ true, %94 ], [ true, %83 ], [ true, %.lr.ph87 ]
  ret i1 %.0
}